target datalayout = "e-m:e-p270:32:32-p271:32:32-p272:64:64-i64:64-i128:128-f80:128-n8:16:32:64-S128"
target triple = "x86_64-pc-linux-gnu"

%"class.std::basic_ios" = type { %"class.std::ios_base", ptr, i8, i8, ptr, ptr, ptr, ptr }
%"class.std::ios_base" = type { ptr, i64, i64, i32, i32, i32, ptr, %"struct.std::ios_base::_Words", [8 x %"struct.std::ios_base::_Words"], i32, ptr, %"class.std::locale" }
%"struct.std::ios_base::_Words" = type { ptr, i64 }
%"class.std::locale" = type { ptr }
%"class.std::__cxx11::basic_string" = type { %"struct.std::__cxx11::basic_string<char>::_Alloc_hider", i64, %union.anon }
%"struct.std::__cxx11::basic_string<char>::_Alloc_hider" = type { ptr }
%union.anon = type { i64, [8 x i8] }
%"class.pro::proxy" = type { %"struct.pro::details::meta_ptr", [16 x i8] }
%"struct.pro::details::meta_ptr" = type { ptr }
%"class.std::__cxx11::basic_stringstream" = type { %"class.std::basic_iostream.base", %"class.std::__cxx11::basic_stringbuf", %"class.std::basic_ios" }
%"class.std::basic_iostream.base" = type { %"class.std::basic_istream.base", %"class.std::basic_ostream.base" }
%"class.std::basic_istream.base" = type { ptr, i64 }
%"class.std::basic_ostream.base" = type { ptr }
%"class.std::__cxx11::basic_stringbuf" = type { %"class.std::basic_streambuf", i32, %"class.std::__cxx11::basic_string" }
%"class.std::basic_streambuf" = type { ptr, ptr, ptr, ptr, ptr, ptr, ptr, %"class.std::locale" }
%"struct.std::_Setprecision" = type { i32 }
%"struct.pro::details::dispatcher_meta.42" = type { ptr }
%"struct.pro::details::dispatcher_meta.44" = type { ptr }

@.str.41 = private unnamed_addr constant [9 x i8] c"shape = \00", align 1
@.str.42 = private unnamed_addr constant [10 x i8] c", area = \00", align 1

; Function Attrs: mustprogress nounwind uwtable
define internal noundef ptr @_ZNK3pro7details8meta_ptrINS0_14composite_metaIJNS0_15dispatcher_metaINS0_28relocatability_meta_providerILb1EEEEENS3_INS0_29destructibility_meta_providerILb1EEEEENS2_IJNS3_INS0_20overload_traits_implILb0EvJRSoEE13meta_providerIN12_GLOBAL__N_14spec4DrawEEEEEEEENS2_IJNS3_INSA_ILb1EdJEE13meta_providerINSF_4AreaEEEEEEEEEEEEptEv(ptr noundef nonnull align 8 dereferenceable(8) %0) #7 align 2 {
  %2 = alloca ptr, align 8
  store ptr %0, ptr %2, align 8
  %3 = load ptr, ptr %2, align 8
  %4 = getelementptr inbounds %"struct.pro::details::meta_ptr", ptr %3, i32 0, i32 0
  %5 = load ptr, ptr %4, align 8
  ret ptr %5
}

; Function Attrs: mustprogress nounwind uwtable
define internal noundef double @_ZNK3pro5proxyIN12_GLOBAL__N_14spec8DrawableEE6invokeINS2_4AreaEJEEEDcDpOT0_Qaasr6TraitsE12has_dispatchITL0__ErqTNS_7details15dispatch_traitsISA_E16matched_overloadIDpTL0_0_EEE(ptr noundef nonnull align 8 dereferenceable(24) %0) #7 align 2 {
  %2 = alloca ptr, align 8
  store ptr %0, ptr %2, align 8
  %3 = load ptr, ptr %2, align 8
  %4 = getelementptr inbounds %"class.pro::proxy", ptr %3, i32 0, i32 0
  %5 = call noundef ptr @_ZNK3pro7details8meta_ptrINS0_14composite_metaIJNS0_15dispatcher_metaINS0_28relocatability_meta_providerILb1EEEEENS3_INS0_29destructibility_meta_providerILb1EEEEENS2_IJNS3_INS0_20overload_traits_implILb0EvJRSoEE13meta_providerIN12_GLOBAL__N_14spec4DrawEEEEEEEENS2_IJNS3_INSA_ILb1EdJEE13meta_providerINSF_4AreaEEEEEEEEEEEEptEv(ptr noundef nonnull align 8 dereferenceable(8) %4) #3
  %6 = getelementptr inbounds i8, ptr %5, i64 24
  %7 = getelementptr inbounds %"struct.pro::details::dispatcher_meta.44", ptr %6, i32 0, i32 0
  %8 = load ptr, ptr %7, align 8
  %9 = getelementptr inbounds %"class.pro::proxy", ptr %3, i32 0, i32 1
  %10 = getelementptr inbounds [16 x i8], ptr %9, i64 0, i64 0
  %11 = call noundef double %8(ptr noundef %10) #3
  ret double %11
}

; Function Attrs: mustprogress uwtable
define internal void @_ZNK3pro5proxyIN12_GLOBAL__N_14spec8DrawableEE6invokeINS2_4DrawEJRNSt7__cxx1118basic_stringstreamIcSt11char_traitsIcESaIcEEEEEEDcDpOT0_Qaasr6TraitsE12has_dispatchITL0__ErqTNS_7details15dispatch_traitsISH_E16matched_overloadIDpTL0_0_EEE(ptr noundef nonnull align 8 dereferenceable(24) %0, ptr noundef nonnull align 8 dereferenceable(128) %1) #4 align 2 {
  %3 = alloca ptr, align 8
  %4 = alloca ptr, align 8
  store ptr %0, ptr %3, align 8
  store ptr %1, ptr %4, align 8
  %5 = load ptr, ptr %3, align 8
  %6 = getelementptr inbounds %"class.pro::proxy", ptr %5, i32 0, i32 0
  %7 = call noundef ptr @_ZNK3pro7details8meta_ptrINS0_14composite_metaIJNS0_15dispatcher_metaINS0_28relocatability_meta_providerILb1EEEEENS3_INS0_29destructibility_meta_providerILb1EEEEENS2_IJNS3_INS0_20overload_traits_implILb0EvJRSoEE13meta_providerIN12_GLOBAL__N_14spec4DrawEEEEEEEENS2_IJNS3_INSA_ILb1EdJEE13meta_providerINSF_4AreaEEEEEEEEEEEEptEv(ptr noundef nonnull align 8 dereferenceable(8) %6) #3
  %8 = getelementptr inbounds i8, ptr %7, i64 16
  %9 = getelementptr inbounds %"struct.pro::details::dispatcher_meta.42", ptr %8, i32 0, i32 0
  %10 = load ptr, ptr %9, align 8
  %11 = getelementptr inbounds %"class.pro::proxy", ptr %5, i32 0, i32 1
  %12 = getelementptr inbounds [16 x i8], ptr %11, i64 0, i64 0
  %13 = load ptr, ptr %4, align 8
  %14 = getelementptr inbounds i8, ptr %13, i64 16
  call void %10(ptr noundef %12, ptr noundef nonnull align 8 dereferenceable(8) %14)
  ret void
}

; Function Attrs: mustprogress nounwind uwtable
define internal noundef double @_ZNK12_GLOBAL__N_14spec4Area8accessorIN3pro5proxyINS0_8DrawableEEEE4AreaIJEEEDcDpOT_QrqXclptscNS3_7details9dependentIPKT_JDpTL0__EE4typeEfpT6invokeIS1_Espclgssr3stdE7forwardISH_Efp_EEE(ptr noundef nonnull align 1 dereferenceable(1) %0) #7 align 2 {
  %2 = alloca ptr, align 8
  store ptr %0, ptr %2, align 8
  %3 = load ptr, ptr %2, align 8
  %4 = call noundef double @_ZNK3pro5proxyIN12_GLOBAL__N_14spec8DrawableEE6invokeINS2_4AreaEJEEEDcDpOT0_Qaasr6TraitsE12has_dispatchITL0__ErqTNS_7details15dispatch_traitsISA_E16matched_overloadIDpTL0_0_EEE(ptr noundef nonnull align 8 dereferenceable(24) %3) #3
  ret double %4
}

; Function Attrs: mustprogress uwtable
define internal void @_ZNK12_GLOBAL__N_14spec4Draw8accessorIN3pro5proxyINS0_8DrawableEEEE4DrawIJRNSt7__cxx1118basic_stringstreamIcSt11char_traitsIcESaIcEEEEEEDcDpOT_QrqXclptscNS3_7details9dependentIPKT_JDpTL0__EE4typeEfpT6invokeIS1_Espclgssr3stdE7forwardISO_Efp_EEE(ptr noundef nonnull align 1 dereferenceable(1) %0, ptr noundef nonnull align 8 dereferenceable(128) %1) #4 align 2 {
  %3 = alloca ptr, align 8
  %4 = alloca ptr, align 8
  store ptr %0, ptr %3, align 8
  store ptr %1, ptr %4, align 8
  %5 = load ptr, ptr %3, align 8
  %6 = load ptr, ptr %4, align 8
  call void @_ZNK3pro5proxyIN12_GLOBAL__N_14spec8DrawableEE6invokeINS2_4DrawEJRNSt7__cxx1118basic_stringstreamIcSt11char_traitsIcESaIcEEEEEEDcDpOT0_Qaasr6TraitsE12has_dispatchITL0__ErqTNS_7details15dispatch_traitsISH_E16matched_overloadIDpTL0_0_EEE(ptr noundef nonnull align 8 dereferenceable(24) %5, ptr noundef nonnull align 8 dereferenceable(128) %6)
  ret void
}

; Function Attrs: mustprogress nounwind uwtable
define linkonce_odr dso_local i32 @_ZSt12setprecisioni(i32 noundef %0) #7 comdat {
  %2 = alloca %"struct.std::_Setprecision", align 4
  %3 = alloca i32, align 4
  store i32 %0, ptr %3, align 4
  %4 = getelementptr inbounds %"struct.std::_Setprecision", ptr %2, i32 0, i32 0
  %5 = load i32, ptr %3, align 4
  store i32 %5, ptr %4, align 4
  %6 = getelementptr inbounds %"struct.std::_Setprecision", ptr %2, i32 0, i32 0
  %7 = load i32, ptr %6, align 4
  ret i32 %7
}

; Function Attrs: mustprogress uwtable
define internal void @_ZN12_GLOBAL__N_121PrintDrawableToStringB5cxx11EN3pro5proxyINS_4spec8DrawableEEE(ptr dead_on_unwind noalias writable sret(%"class.std::__cxx11::basic_string") align 8 %0, ptr noundef %1) #4 personality ptr @__gxx_personality_v0 {
  %3 = alloca ptr, align 8
  %4 = alloca ptr, align 8
  %5 = alloca %"class.std::__cxx11::basic_stringstream", align 8
  %6 = alloca ptr, align 8
  %7 = alloca i32, align 4
  %8 = alloca %"struct.std::_Setprecision", align 4
  store ptr %0, ptr %3, align 8
  store ptr %1, ptr %4, align 8
  call void @_ZNSt7__cxx1118basic_stringstreamIcSt11char_traitsIcESaIcEEC1Ev(ptr noundef nonnull align 8 dereferenceable(128) %5)
  %9 = getelementptr inbounds i8, ptr %5, i64 16
  %10 = invoke noundef nonnull align 8 dereferenceable(8) ptr @_ZNSolsEPFRSt8ios_baseS0_E(ptr noundef nonnull align 8 dereferenceable(8) %9, ptr noundef @_ZSt5fixedRSt8ios_base)
          to label %11 unwind label %29

11:                                               ; preds = %2
  %12 = invoke i32 @_ZSt12setprecisioni(i32 noundef 5)
          to label %13 unwind label %29

13:                                               ; preds = %11
  %14 = getelementptr inbounds %"struct.std::_Setprecision", ptr %8, i32 0, i32 0
  store i32 %12, ptr %14, align 4
  %15 = getelementptr inbounds %"struct.std::_Setprecision", ptr %8, i32 0, i32 0
  %16 = load i32, ptr %15, align 4
  %17 = invoke noundef nonnull align 8 dereferenceable(8) ptr @_ZStlsIcSt11char_traitsIcEERSt13basic_ostreamIT_T0_ES6_St13_Setprecision(ptr noundef nonnull align 8 dereferenceable(8) %10, i32 %16)
          to label %18 unwind label %29

18:                                               ; preds = %13
  %19 = invoke noundef nonnull align 8 dereferenceable(8) ptr @_ZStlsISt11char_traitsIcEERSt13basic_ostreamIcT_ES5_PKc(ptr noundef nonnull align 8 dereferenceable(8) %17, ptr noundef @.str.41)
          to label %20 unwind label %29

20:                                               ; preds = %18
  invoke void @_ZNK12_GLOBAL__N_14spec4Draw8accessorIN3pro5proxyINS0_8DrawableEEEE4DrawIJRNSt7__cxx1118basic_stringstreamIcSt11char_traitsIcESaIcEEEEEEDcDpOT_QrqXclptscNS3_7details9dependentIPKT_JDpTL0__EE4typeEfpT6invokeIS1_Espclgssr3stdE7forwardISO_Efp_EEE(ptr noundef nonnull align 1 dereferenceable(1) %1, ptr noundef nonnull align 8 dereferenceable(128) %5)
          to label %21 unwind label %29

21:                                               ; preds = %20
  %22 = getelementptr inbounds i8, ptr %5, i64 16
  %23 = invoke noundef nonnull align 8 dereferenceable(8) ptr @_ZStlsISt11char_traitsIcEERSt13basic_ostreamIcT_ES5_PKc(ptr noundef nonnull align 8 dereferenceable(8) %22, ptr noundef @.str.42)
          to label %24 unwind label %29

24:                                               ; preds = %21
  %25 = call noundef double @_ZNK12_GLOBAL__N_14spec4Area8accessorIN3pro5proxyINS0_8DrawableEEEE4AreaIJEEEDcDpOT_QrqXclptscNS3_7details9dependentIPKT_JDpTL0__EE4typeEfpT6invokeIS1_Espclgssr3stdE7forwardISH_Efp_EEE(ptr noundef nonnull align 1 dereferenceable(1) %1) #3
  %26 = invoke noundef nonnull align 8 dereferenceable(8) ptr @_ZNSolsEd(ptr noundef nonnull align 8 dereferenceable(8) %23, double noundef %25)
          to label %27 unwind label %29

27:                                               ; preds = %24
  invoke void @_ZNOSt7__cxx1118basic_stringstreamIcSt11char_traitsIcESaIcEE3strEv(ptr dead_on_unwind writable sret(%"class.std::__cxx11::basic_string") align 8 %0, ptr noundef nonnull align 8 dereferenceable(128) %5)
          to label %28 unwind label %29

28:                                               ; preds = %27
  call void @_ZNSt7__cxx1118basic_stringstreamIcSt11char_traitsIcESaIcEED1Ev(ptr noundef nonnull align 8 dereferenceable(128) %5) #3
  ret void

29:                                               ; preds = %27, %24, %21, %20, %18, %13, %11, %2
  %30 = landingpad { ptr, i32 }
          cleanup
  %31 = extractvalue { ptr, i32 } %30, 0
  store ptr %31, ptr %6, align 8
  %32 = extractvalue { ptr, i32 } %30, 1
  store i32 %32, ptr %7, align 4
  call void @_ZNSt7__cxx1118basic_stringstreamIcSt11char_traitsIcESaIcEED1Ev(ptr noundef nonnull align 8 dereferenceable(128) %5) #3
  br label %33

33:                                               ; preds = %29
  %34 = load ptr, ptr %6, align 8
  %35 = load i32, ptr %7, align 4
  %36 = insertvalue { ptr, i32 } poison, ptr %34, 0
  %37 = insertvalue { ptr, i32 } %36, i32 %35, 1
  resume { ptr, i32 } %37
}