; Function Attrs: mustprogress uwtable
define internal fastcc void @_ZN12_GLOBAL__N_121PrintDrawableToStringB5cxx11EN3pro5proxyINS_4spec8DrawableEEE(ptr dead_on_unwind noalias writable align 8 %0, ptr noundef %1) unnamed_addr #3 personality ptr @__gxx_personality_v0 {
  %3 = alloca %"class.std::__cxx11::basic_stringstream", align 8
  call void @_ZNSt7__cxx1118basic_stringstreamIcSt11char_traitsIcESaIcEEC1Ev(ptr noundef nonnull align 8 dereferenceable(128) %3)
  %4 = getelementptr inbounds i8, ptr %3, i64 16
  %5 = invoke noundef nonnull align 8 dereferenceable(8) ptr @_ZNSolsEPFRSt8ios_baseS0_E(ptr noundef nonnull align 8 dereferenceable(8) %4, ptr noundef nonnull @_ZSt5fixedRSt8ios_base)
          to label %6 unwind label %22

6:                                                ; preds = %2
  %7 = invoke noundef nonnull align 8 dereferenceable(8) ptr @_ZStlsIcSt11char_traitsIcEERSt13basic_ostreamIT_T0_ES6_St13_Setprecision(ptr noundef nonnull align 8 dereferenceable(8) %5, i32 5)
          to label %8 unwind label %22

8:                                                ; preds = %6
  %9 = invoke noundef nonnull align 8 dereferenceable(8) ptr @_ZStlsISt11char_traitsIcEERSt13basic_ostreamIcT_ES5_PKc(ptr noundef nonnull align 8 dereferenceable(8) %7, ptr noundef nonnull @.str.41)
          to label %10 unwind label %22

10:                                               ; preds = %8
  %.val.i.i = load ptr, ptr %1, align 8
  %11 = getelementptr inbounds i8, ptr %.val.i.i, i64 16
  %12 = load ptr, ptr %11, align 8
  %13 = getelementptr inbounds i8, ptr %1, i64 8
  invoke void %12(ptr noundef nonnull %13, ptr noundef nonnull align 8 dereferenceable(8) %4)
          to label %_ZNK12_GLOBAL__N_14spec4Draw8accessorIN3pro5proxyINS0_8DrawableEEEE4DrawIJRNSt7__cxx1118basic_stringstreamIcSt11char_traitsIcESaIcEEEEEEDcDpOT_QrqXclptscNS3_7details9dependentIPKT_JDpTL0__EE4typeEfpT6invokeIS1_Espclgssr3stdE7forwardISO_Efp_EEE.exit unwind label %22

_ZNK12_GLOBAL__N_14spec4Draw8accessorIN3pro5proxyINS0_8DrawableEEEE4DrawIJRNSt7__cxx1118basic_stringstreamIcSt11char_traitsIcESaIcEEEEEEDcDpOT_QrqXclptscNS3_7details9dependentIPKT_JDpTL0__EE4typeEfpT6invokeIS1_Espclgssr3stdE7forwardISO_Efp_EEE.exit: ; preds = %10
  %14 = invoke noundef nonnull align 8 dereferenceable(8) ptr @_ZStlsISt11char_traitsIcEERSt13basic_ostreamIcT_ES5_PKc(ptr noundef nonnull align 8 dereferenceable(8) %4, ptr noundef nonnull @.str.42)
          to label %15 unwind label %22

15:                                               ; preds = %_ZNK12_GLOBAL__N_14spec4Draw8accessorIN3pro5proxyINS0_8DrawableEEEE4DrawIJRNSt7__cxx1118basic_stringstreamIcSt11char_traitsIcESaIcEEEEEEDcDpOT_QrqXclptscNS3_7details9dependentIPKT_JDpTL0__EE4typeEfpT6invokeIS1_Espclgssr3stdE7forwardISO_Efp_EEE.exit
  %.val.i.i1 = load ptr, ptr %1, align 8
  %16 = getelementptr inbounds i8, ptr %.val.i.i1, i64 24
  %17 = load ptr, ptr %16, align 8
  %18 = call noundef double %17(ptr noundef nonnull %13) #24
  %19 = invoke noundef nonnull align 8 dereferenceable(8) ptr @_ZNSolsEd(ptr noundef nonnull align 8 dereferenceable(8) %14, double noundef %18)
          to label %20 unwind label %22

20:                                               ; preds = %15
  invoke void @_ZNOSt7__cxx1118basic_stringstreamIcSt11char_traitsIcESaIcEE3strEv(ptr dead_on_unwind writable sret(%"class.std::__cxx11::basic_string") align 8 %0, ptr noundef nonnull align 8 dereferenceable(128) %3)
          to label %21 unwind label %22

21:                                               ; preds = %20
  call void @_ZNSt7__cxx1118basic_stringstreamIcSt11char_traitsIcESaIcEED1Ev(ptr noundef nonnull align 8 dereferenceable(128) %3) #24
  ret void

22:                                               ; preds = %10, %20, %15, %_ZNK12_GLOBAL__N_14spec4Draw8accessorIN3pro5proxyINS0_8DrawableEEEE4DrawIJRNSt7__cxx1118basic_stringstreamIcSt11char_traitsIcESaIcEEEEEEDcDpOT_QrqXclptscNS3_7details9dependentIPKT_JDpTL0__EE4typeEfpT6invokeIS1_Espclgssr3stdE7forwardISO_Efp_EEE.exit, %8, %6, %2
  %23 = landingpad { ptr, i32 }
          cleanup
  call void @_ZNSt7__cxx1118basic_stringstreamIcSt11char_traitsIcESaIcEED1Ev(ptr noundef nonnull align 8 dereferenceable(128) %3) #24
  resume { ptr, i32 } %23
}